; Function Attrs: mustprogress nounwind uwtable
define dso_local noundef zeroext i1 @_ZNK5clang10installapi13DylibVerifier34shouldIgnoreInternalZipperedSymbolEPKN4llvm5MachO6RecordERKNS1_13SymbolContextE(ptr noundef nonnull readonly align 8 captures(none) dereferenceable(4088) %0, ptr noundef readnone captures(none) %1, ptr noundef nonnull align 8 dereferenceable(50) %2) local_unnamed_addr #0 align 2 {
  %4 = getelementptr inbounds nuw i8, ptr %0, i64 3868
  %5 = load i8, ptr %4, align 4
  %6 = trunc i8 %5 to i1
  br i1 %6, label %7, label %18

7:                                                ; preds = %3
  %8 = getelementptr inbounds nuw i8, ptr %0, i64 3888
  %9 = load ptr, ptr %8, align 8
  %10 = getelementptr inbounds nuw i8, ptr %2, i64 32
  %11 = load i8, ptr %10, align 8
  %12 = tail call noundef ptr @_ZNKSt7__cxx1112basic_stringIcSt11char_traitsIcESaIcEE4dataEv(ptr noundef nonnull align 8 dereferenceable(32) %2) #18
  %13 = tail call noundef i64 @_ZNKSt7__cxx1112basic_stringIcSt11char_traitsIcESaIcEE6lengthEv(ptr noundef nonnull align 8 dereferenceable(32) %2) #18
  %14 = getelementptr inbounds nuw i8, ptr %2, i64 48
  %15 = load i8, ptr %14, align 8
  %16 = tail call noundef ptr @_ZNK4llvm5MachO9SymbolSet10findSymbolENS0_10EncodeKindENS_9StringRefENS0_16ObjCIFSymbolKindE(ptr noundef nonnull align 8 dereferenceable(120) %9, i8 noundef zeroext %11, ptr %12, i64 %13, i8 noundef zeroext %15) #18
  %17 = icmp ne ptr %16, null
  br label %18

18:                                               ; preds = %3, %7
  %.0 = phi i1 [ %17, %7 ], [ false, %3 ]
  ret i1 %.0
}